target datalayout = "e-m:e-p270:32:32-p271:32:32-p272:64:64-i64:64-i128:128-f80:128-n8:16:32:64-S128"
target triple = "x86_64-pc-linux-gnu"

%struct.SurfaceDataRasInfo = type { %struct.SurfaceDataBounds, ptr, i32, i32, i32, i32, ptr, ptr, ptr, ptr, ptr, ptr, i32, %union.anon.0 }
%struct.SurfaceDataBounds = type { i32, i32, i32, i32 }
%union.anon.0 = type { ptr, [56 x i8] }

; Function Attrs: nounwind uwtable
define hidden zeroext i8 @checkSameLut(ptr noundef %0, ptr noundef %1, ptr noundef %2, ptr noundef %3) #0 {
  %5 = alloca i8, align 1
  %6 = alloca ptr, align 8
  %7 = alloca ptr, align 8
  %8 = alloca ptr, align 8
  %9 = alloca ptr, align 8
  %10 = alloca i32, align 4
  %11 = alloca i32, align 4
  store ptr %0, ptr %6, align 8
  store ptr %1, ptr %7, align 8
  store ptr %2, ptr %8, align 8
  store ptr %3, ptr %9, align 8
  %12 = load ptr, ptr %6, align 8
  %13 = load ptr, ptr %7, align 8
  %14 = icmp ne ptr %12, %13
  br i1 %14, label %15, label %49

15:                                               ; preds = %4
  %16 = load ptr, ptr %8, align 8
  %17 = getelementptr inbounds %struct.SurfaceDataRasInfo, ptr %16, i32 0, i32 5
  %18 = load i32, ptr %17, align 4
  store i32 %18, ptr %10, align 4
  %19 = load i32, ptr %10, align 4
  %20 = load ptr, ptr %9, align 8
  %21 = getelementptr inbounds %struct.SurfaceDataRasInfo, ptr %20, i32 0, i32 5
  %22 = load i32, ptr %21, align 4
  %23 = icmp ugt i32 %19, %22
  br i1 %23, label %24, label %25

24:                                               ; preds = %15
  store i8 0, ptr %5, align 1
  br label %50

25:                                               ; preds = %15
  store i32 0, ptr %11, align 4
  br label %26

26:                                               ; preds = %44, %25
  %27 = load i32, ptr %11, align 4
  %28 = load i32, ptr %10, align 4
  %29 = icmp ult i32 %27, %28
  br i1 %29, label %30, label %47

30:                                               ; preds = %26
  %31 = load ptr, ptr %6, align 8
  %32 = load i32, ptr %11, align 4
  %33 = zext i32 %32 to i64
  %34 = getelementptr inbounds i32, ptr %31, i64 %33
  %35 = load i32, ptr %34, align 4
  %36 = load ptr, ptr %7, align 8
  %37 = load i32, ptr %11, align 4
  %38 = zext i32 %37 to i64
  %39 = getelementptr inbounds i32, ptr %36, i64 %38
  %40 = load i32, ptr %39, align 4
  %41 = icmp ne i32 %35, %40
  br i1 %41, label %42, label %43

42:                                               ; preds = %30
  store i8 0, ptr %5, align 1
  br label %50

43:                                               ; preds = %30
  br label %44

44:                                               ; preds = %43
  %45 = load i32, ptr %11, align 4
  %46 = add i32 %45, 1
  store i32 %46, ptr %11, align 4
  br label %26, !llvm.loop !55

47:                                               ; preds = %26
  br label %48

48:                                               ; preds = %47
  br label %49

49:                                               ; preds = %48, %4
  store i8 1, ptr %5, align 1
  br label %50

50:                                               ; preds = %49, %42, %24
  %51 = load i8, ptr %5, align 1
  ret i8 %51
}