; Function Attrs: nofree norecurse nosync nounwind memory(argmem: read) uwtable
define hidden zeroext range(i8 0, 2) i8 @checkSameLut(ptr noundef readonly %0, ptr noundef readonly %1, ptr nocapture noundef readonly %2, ptr nocapture noundef readonly %3) local_unnamed_addr #4 {
  %.not = icmp eq ptr %0, %1
  br i1 %.not, label %.loopexit, label %5

5:                                                ; preds = %4
  %6 = getelementptr inbounds i8, ptr %2, i64 36
  %7 = load i32, ptr %6, align 4
  %8 = getelementptr inbounds i8, ptr %3, i64 36
  %9 = load i32, ptr %8, align 4
  %10 = icmp ugt i32 %7, %9
  br i1 %10, label %.loopexit, label %.preheader

.preheader:                                       ; preds = %5
  %.not20 = icmp eq i32 %7, 0
  br i1 %.not20, label %.loopexit, label %.lr.ph.preheader

.lr.ph.preheader:                                 ; preds = %.preheader
  %wide.trip.count = zext i32 %7 to i64
  br label %.lr.ph

11:                                               ; preds = %.lr.ph
  %indvars.iv.next = add nuw nsw i64 %indvars.iv, 1
  %exitcond.not = icmp eq i64 %indvars.iv.next, %wide.trip.count
  br i1 %exitcond.not, label %.loopexit, label %.lr.ph, !llvm.loop !15

.lr.ph:                                           ; preds = %.lr.ph.preheader, %11
  %indvars.iv = phi i64 [ 0, %.lr.ph.preheader ], [ %indvars.iv.next, %11 ]
  %12 = getelementptr inbounds i32, ptr %0, i64 %indvars.iv
  %13 = load i32, ptr %12, align 4
  %14 = getelementptr inbounds i32, ptr %1, i64 %indvars.iv
  %15 = load i32, ptr %14, align 4
  %.not16 = icmp eq i32 %13, %15
  br i1 %.not16, label %11, label %.loopexit

.loopexit:                                        ; preds = %.lr.ph, %11, %.preheader, %4, %5
  %.012 = phi i8 [ 0, %5 ], [ 1, %4 ], [ 1, %.preheader ], [ 0, %.lr.ph ], [ 1, %11 ]
  ret i8 %.012
}